; Function Attrs: mustprogress nounwind uwtable
define hidden void @_ZNK9OopMapSet5printEv(ptr nocapture noundef nonnull readonly align 8 dereferenceable(24) %0) local_unnamed_addr #2 align 2 {
  %2 = load ptr, ptr @tty, align 8
  %3 = load i32, ptr %0, align 8
  tail call void (ptr, ptr, ...) @_ZN12outputStream8print_crEPKcz(ptr noundef nonnull align 8 dereferenceable(56) %2, ptr noundef nonnull @.str.20, i32 noundef %3) #19
  %4 = icmp sgt i32 %3, 0
  br i1 %4, label %.lr.ph.i, label %_ZNK9OopMapSet8print_onEP12outputStream.exit

.lr.ph.i:                                         ; preds = %1
  %5 = getelementptr inbounds i8, ptr %0, i64 8
  %wide.trip.count.i = zext nneg i32 %3 to i64
  br label %6

6:                                                ; preds = %6, %.lr.ph.i
  %indvars.iv.i = phi i64 [ 0, %.lr.ph.i ], [ %indvars.iv.next.i, %6 ]
  %7 = load ptr, ptr %5, align 8
  %8 = getelementptr inbounds ptr, ptr %7, i64 %indvars.iv.i
  %9 = load ptr, ptr %8, align 8
  %10 = trunc nuw nsw i64 %indvars.iv.i to i32
  tail call void (ptr, ptr, ...) @_ZN12outputStream8print_crEPKcz(ptr noundef nonnull align 8 dereferenceable(56) %2, ptr noundef nonnull @.str.21, i32 noundef %10) #19
  tail call void @_ZNK6OopMap8print_onEP12outputStream(ptr noundef nonnull align 8 dereferenceable(32) %9, ptr noundef nonnull %2)
  tail call void @_ZN12outputStream2crEv(ptr noundef nonnull align 8 dereferenceable(56) %2) #19
  %indvars.iv.next.i = add nuw nsw i64 %indvars.iv.i, 1
  %exitcond.not.i = icmp eq i64 %indvars.iv.next.i, %wide.trip.count.i
  br i1 %exitcond.not.i, label %_ZNK9OopMapSet8print_onEP12outputStream.exit, label %6, !llvm.loop !26

_ZNK9OopMapSet8print_onEP12outputStream.exit:     ; preds = %6, %1
  tail call void @_ZN12outputStream2crEv(ptr noundef nonnull align 8 dereferenceable(56) %2) #19
  ret void
}